target datalayout = "e-m:e-p270:32:32-p271:32:32-p272:64:64-i64:64-i128:128-f80:128-n8:16:32:64-S128"
target triple = "x86_64-pc-linux-gnu"

%struct.jpeg_decompress_struct = type { ptr, ptr, ptr, ptr, i32, i32, ptr, i32, i32, i32, i32, i32, i32, i32, double, i32, i32, i32, i32, i32, i32, i32, i32, i32, i32, i32, i32, i32, i32, i32, i32, i32, i32, ptr, i32, i32, i32, i32, i32, ptr, [4 x ptr], [4 x ptr], [4 x ptr], i32, ptr, i32, i32, [16 x i8], [16 x i8], [16 x i8], i32, i32, i8, i8, i8, i16, i16, i32, i8, i32, ptr, i32, i32, i32, i32, ptr, i32, [4 x ptr], i32, i32, i32, [10 x i32], i32, i32, i32, i32, i32, ptr, ptr, ptr, ptr, ptr, ptr, ptr, ptr, ptr, ptr, ptr }
%struct.jpeg_error_mgr = type { ptr, ptr, ptr, ptr, ptr, i32, %union.anon, i32, i64, ptr, i32, ptr, i32, i32 }
%union.anon = type { [8 x i32], [48 x i8] }
%struct.jpeg_memory_mgr = type { ptr, ptr, ptr, ptr, ptr, ptr, ptr, ptr, ptr, ptr, ptr, i64, i64 }
%struct.my_coef_controller = type { %struct.jpeg_d_coef_controller, i32, i32, i32, [10 x ptr], ptr, [10 x ptr], ptr }
%struct.jpeg_d_coef_controller = type { ptr, ptr, ptr, ptr, ptr, ptr, i32, i32, i32, ptr }
%struct.jpeg_component_info = type { i32, i32, i32, i32, i32, i32, i32, i32, i32, i32, i32, i32, i32, i32, i32, i32, i32, i32, i32, ptr, ptr }

; Function Attrs: nounwind uwtable
define void @jinit_d_coef_controller(ptr noundef %0, i32 noundef %1) #0 {
  %3 = alloca ptr, align 8
  %4 = alloca i32, align 4
  %5 = alloca ptr, align 8
  %6 = alloca i32, align 4
  %7 = alloca i32, align 4
  %8 = alloca ptr, align 8
  %9 = alloca ptr, align 8
  %10 = alloca i32, align 4
  store ptr %0, ptr %3, align 8, !tbaa !3
  store i32 %1, ptr %4, align 4, !tbaa !8
  call void @llvm.lifetime.start.p0(i64 8, ptr %5) #4
  %11 = load ptr, ptr %3, align 8, !tbaa !3
  %12 = getelementptr inbounds nuw %struct.jpeg_decompress_struct, ptr %11, i32 0, i32 43
  %13 = load i32, ptr %12, align 8, !tbaa !10
  %14 = icmp ne i32 %13, 8
  br i1 %14, label %15, label %34

15:                                               ; preds = %2
  %16 = load ptr, ptr %3, align 8, !tbaa !3
  %17 = getelementptr inbounds nuw %struct.jpeg_decompress_struct, ptr %16, i32 0, i32 0
  %18 = load ptr, ptr %17, align 8, !tbaa !33
  %19 = getelementptr inbounds nuw %struct.jpeg_error_mgr, ptr %18, i32 0, i32 5
  store i32 15, ptr %19, align 8, !tbaa !34
  %20 = load ptr, ptr %3, align 8, !tbaa !3
  %21 = getelementptr inbounds nuw %struct.jpeg_decompress_struct, ptr %20, i32 0, i32 43
  %22 = load i32, ptr %21, align 8, !tbaa !10
  %23 = load ptr, ptr %3, align 8, !tbaa !3
  %24 = getelementptr inbounds nuw %struct.jpeg_decompress_struct, ptr %23, i32 0, i32 0
  %25 = load ptr, ptr %24, align 8, !tbaa !33
  %26 = getelementptr inbounds nuw %struct.jpeg_error_mgr, ptr %25, i32 0, i32 6
  %27 = getelementptr inbounds [8 x i32], ptr %26, i64 0, i64 0
  store i32 %22, ptr %27, align 4, !tbaa !37
  %28 = load ptr, ptr %3, align 8, !tbaa !3
  %29 = getelementptr inbounds nuw %struct.jpeg_decompress_struct, ptr %28, i32 0, i32 0
  %30 = load ptr, ptr %29, align 8, !tbaa !33
  %31 = getelementptr inbounds nuw %struct.jpeg_error_mgr, ptr %30, i32 0, i32 0
  %32 = load ptr, ptr %31, align 8, !tbaa !38
  %33 = load ptr, ptr %3, align 8, !tbaa !3
  call void %32(ptr noundef %33)
  br label %34

34:                                               ; preds = %15, %2
  %35 = load ptr, ptr %3, align 8, !tbaa !3
  %36 = getelementptr inbounds nuw %struct.jpeg_decompress_struct, ptr %35, i32 0, i32 1
  %37 = load ptr, ptr %36, align 8, !tbaa !39
  %38 = getelementptr inbounds nuw %struct.jpeg_memory_mgr, ptr %37, i32 0, i32 0
  %39 = load ptr, ptr %38, align 8, !tbaa !40
  %40 = load ptr, ptr %3, align 8, !tbaa !3
  %41 = call ptr %39(ptr noundef %40, i32 noundef 1, i64 noundef 264)
  store ptr %41, ptr %5, align 8, !tbaa !42
  %42 = load ptr, ptr %5, align 8, !tbaa !42
  call void @llvm.memset.p0.i64(ptr align 8 %42, i8 0, i64 264, i1 false)
  %43 = load ptr, ptr %5, align 8, !tbaa !42
  %44 = load ptr, ptr %3, align 8, !tbaa !3
  %45 = getelementptr inbounds nuw %struct.jpeg_decompress_struct, ptr %44, i32 0, i32 79
  store ptr %43, ptr %45, align 8, !tbaa !43
  %46 = load ptr, ptr %5, align 8, !tbaa !42
  %47 = getelementptr inbounds nuw %struct.my_coef_controller, ptr %46, i32 0, i32 0
  %48 = getelementptr inbounds nuw %struct.jpeg_d_coef_controller, ptr %47, i32 0, i32 0
  store ptr @start_input_pass, ptr %48, align 8, !tbaa !44
  %49 = load ptr, ptr %5, align 8, !tbaa !42
  %50 = getelementptr inbounds nuw %struct.my_coef_controller, ptr %49, i32 0, i32 0
  %51 = getelementptr inbounds nuw %struct.jpeg_d_coef_controller, ptr %50, i32 0, i32 2
  store ptr @start_output_pass, ptr %51, align 8, !tbaa !49
  %52 = load ptr, ptr %5, align 8, !tbaa !42
  %53 = getelementptr inbounds nuw %struct.my_coef_controller, ptr %52, i32 0, i32 7
  store ptr null, ptr %53, align 8, !tbaa !50
  %54 = load i32, ptr %4, align 4, !tbaa !8
  %55 = icmp ne i32 %54, 0
  br i1 %55, label %56, label %129

56:                                               ; preds = %34
  call void @llvm.lifetime.start.p0(i64 4, ptr %6) #4
  call void @llvm.lifetime.start.p0(i64 4, ptr %7) #4
  call void @llvm.lifetime.start.p0(i64 8, ptr %8) #4
  store i32 0, ptr %6, align 4, !tbaa !8
  %57 = load ptr, ptr %3, align 8, !tbaa !3
  %58 = getelementptr inbounds nuw %struct.jpeg_decompress_struct, ptr %57, i32 0, i32 44
  %59 = load ptr, ptr %58, align 8, !tbaa !51
  store ptr %59, ptr %8, align 8, !tbaa !42
  br label %60

60:                                               ; preds = %111, %56
  %61 = load i32, ptr %6, align 4, !tbaa !8
  %62 = load ptr, ptr %3, align 8, !tbaa !3
  %63 = getelementptr inbounds nuw %struct.jpeg_decompress_struct, ptr %62, i32 0, i32 9
  %64 = load i32, ptr %63, align 8, !tbaa !52
  %65 = icmp slt i32 %61, %64
  br i1 %65, label %66, label %116

66:                                               ; preds = %60
  %67 = load ptr, ptr %8, align 8, !tbaa !42
  %68 = getelementptr inbounds nuw %struct.jpeg_component_info, ptr %67, i32 0, i32 3
  %69 = load i32, ptr %68, align 4, !tbaa !53
  store i32 %69, ptr %7, align 4, !tbaa !8
  %70 = load ptr, ptr %3, align 8, !tbaa !3
  %71 = getelementptr inbounds nuw %struct.jpeg_decompress_struct, ptr %70, i32 0, i32 45
  %72 = load i32, ptr %71, align 8, !tbaa !55
  %73 = icmp ne i32 %72, 0
  br i1 %73, label %74, label %77

74:                                               ; preds = %66
  %75 = load i32, ptr %7, align 4, !tbaa !8
  %76 = mul nsw i32 %75, 5
  store i32 %76, ptr %7, align 4, !tbaa !8
  br label %77

77:                                               ; preds = %74, %66
  %78 = load ptr, ptr %3, align 8, !tbaa !3
  %79 = getelementptr inbounds nuw %struct.jpeg_decompress_struct, ptr %78, i32 0, i32 1
  %80 = load ptr, ptr %79, align 8, !tbaa !39
  %81 = getelementptr inbounds nuw %struct.jpeg_memory_mgr, ptr %80, i32 0, i32 5
  %82 = load ptr, ptr %81, align 8, !tbaa !56
  %83 = load ptr, ptr %3, align 8, !tbaa !3
  %84 = load ptr, ptr %8, align 8, !tbaa !42
  %85 = getelementptr inbounds nuw %struct.jpeg_component_info, ptr %84, i32 0, i32 7
  %86 = load i32, ptr %85, align 4, !tbaa !57
  %87 = zext i32 %86 to i64
  %88 = load ptr, ptr %8, align 8, !tbaa !42
  %89 = getelementptr inbounds nuw %struct.jpeg_component_info, ptr %88, i32 0, i32 2
  %90 = load i32, ptr %89, align 8, !tbaa !58
  %91 = sext i32 %90 to i64
  %92 = call i64 @jround_up(i64 noundef %87, i64 noundef %91)
  %93 = trunc i64 %92 to i32
  %94 = load ptr, ptr %8, align 8, !tbaa !42
  %95 = getelementptr inbounds nuw %struct.jpeg_component_info, ptr %94, i32 0, i32 8
  %96 = load i32, ptr %95, align 8, !tbaa !59
  %97 = zext i32 %96 to i64
  %98 = load ptr, ptr %8, align 8, !tbaa !42
  %99 = getelementptr inbounds nuw %struct.jpeg_component_info, ptr %98, i32 0, i32 3
  %100 = load i32, ptr %99, align 4, !tbaa !53
  %101 = sext i32 %100 to i64
  %102 = call i64 @jround_up(i64 noundef %97, i64 noundef %101)
  %103 = trunc i64 %102 to i32
  %104 = load i32, ptr %7, align 4, !tbaa !8
  %105 = call ptr %82(ptr noundef %83, i32 noundef 1, i32 noundef 1, i32 noundef %93, i32 noundef %103, i32 noundef %104)
  %106 = load ptr, ptr %5, align 8, !tbaa !42
  %107 = getelementptr inbounds nuw %struct.my_coef_controller, ptr %106, i32 0, i32 6
  %108 = load i32, ptr %6, align 4, !tbaa !8
  %109 = sext i32 %108 to i64
  %110 = getelementptr inbounds [10 x ptr], ptr %107, i64 0, i64 %109
  store ptr %105, ptr %110, align 8, !tbaa !60
  br label %111

111:                                              ; preds = %77
  %112 = load i32, ptr %6, align 4, !tbaa !8
  %113 = add nsw i32 %112, 1
  store i32 %113, ptr %6, align 4, !tbaa !8
  %114 = load ptr, ptr %8, align 8, !tbaa !42
  %115 = getelementptr inbounds nuw %struct.jpeg_component_info, ptr %114, i32 1
  store ptr %115, ptr %8, align 8, !tbaa !42
  br label %60, !llvm.loop !62

116:                                              ; preds = %60
  %117 = load ptr, ptr %5, align 8, !tbaa !42
  %118 = getelementptr inbounds nuw %struct.my_coef_controller, ptr %117, i32 0, i32 0
  %119 = getelementptr inbounds nuw %struct.jpeg_d_coef_controller, ptr %118, i32 0, i32 1
  store ptr @consume_data, ptr %119, align 8, !tbaa !64
  %120 = load ptr, ptr %5, align 8, !tbaa !42
  %121 = getelementptr inbounds nuw %struct.my_coef_controller, ptr %120, i32 0, i32 0
  %122 = getelementptr inbounds nuw %struct.jpeg_d_coef_controller, ptr %121, i32 0, i32 3
  store ptr @decompress_data, ptr %122, align 8, !tbaa !65
  %123 = load ptr, ptr %5, align 8, !tbaa !42
  %124 = getelementptr inbounds nuw %struct.my_coef_controller, ptr %123, i32 0, i32 6
  %125 = getelementptr inbounds [10 x ptr], ptr %124, i64 0, i64 0
  %126 = load ptr, ptr %5, align 8, !tbaa !42
  %127 = getelementptr inbounds nuw %struct.my_coef_controller, ptr %126, i32 0, i32 0
  %128 = getelementptr inbounds nuw %struct.jpeg_d_coef_controller, ptr %127, i32 0, i32 9
  store ptr %125, ptr %128, align 8, !tbaa !66
  call void @llvm.lifetime.end.p0(i64 8, ptr %8) #4
  call void @llvm.lifetime.end.p0(i64 4, ptr %7) #4
  call void @llvm.lifetime.end.p0(i64 4, ptr %6) #4
  br label %163

129:                                              ; preds = %34
  call void @llvm.lifetime.start.p0(i64 8, ptr %9) #4
  call void @llvm.lifetime.start.p0(i64 4, ptr %10) #4
  %130 = load ptr, ptr %3, align 8, !tbaa !3
  %131 = getelementptr inbounds nuw %struct.jpeg_decompress_struct, ptr %130, i32 0, i32 1
  %132 = load ptr, ptr %131, align 8, !tbaa !39
  %133 = getelementptr inbounds nuw %struct.jpeg_memory_mgr, ptr %132, i32 0, i32 1
  %134 = load ptr, ptr %133, align 8, !tbaa !67
  %135 = load ptr, ptr %3, align 8, !tbaa !3
  %136 = call ptr %134(ptr noundef %135, i32 noundef 1, i64 noundef 1280)
  store ptr %136, ptr %9, align 8, !tbaa !68
  store i32 0, ptr %10, align 4, !tbaa !8
  br label %137

137:                                              ; preds = %150, %129
  %138 = load i32, ptr %10, align 4, !tbaa !8
  %139 = icmp slt i32 %138, 10
  br i1 %139, label %140, label %153

140:                                              ; preds = %137
  %141 = load ptr, ptr %9, align 8, !tbaa !68
  %142 = load i32, ptr %10, align 4, !tbaa !8
  %143 = sext i32 %142 to i64
  %144 = getelementptr inbounds [64 x i16], ptr %141, i64 %143
  %145 = load ptr, ptr %5, align 8, !tbaa !42
  %146 = getelementptr inbounds nuw %struct.my_coef_controller, ptr %145, i32 0, i32 4
  %147 = load i32, ptr %10, align 4, !tbaa !8
  %148 = sext i32 %147 to i64
  %149 = getelementptr inbounds [10 x ptr], ptr %146, i64 0, i64 %148
  store ptr %144, ptr %149, align 8, !tbaa !68
  br label %150

150:                                              ; preds = %140
  %151 = load i32, ptr %10, align 4, !tbaa !8
  %152 = add nsw i32 %151, 1
  store i32 %152, ptr %10, align 4, !tbaa !8
  br label %137, !llvm.loop !69

153:                                              ; preds = %137
  %154 = load ptr, ptr %5, align 8, !tbaa !42
  %155 = getelementptr inbounds nuw %struct.my_coef_controller, ptr %154, i32 0, i32 0
  %156 = getelementptr inbounds nuw %struct.jpeg_d_coef_controller, ptr %155, i32 0, i32 1
  store ptr @dummy_consume_data, ptr %156, align 8, !tbaa !64
  %157 = load ptr, ptr %5, align 8, !tbaa !42
  %158 = getelementptr inbounds nuw %struct.my_coef_controller, ptr %157, i32 0, i32 0
  %159 = getelementptr inbounds nuw %struct.jpeg_d_coef_controller, ptr %158, i32 0, i32 3
  store ptr @decompress_onepass, ptr %159, align 8, !tbaa !65
  %160 = load ptr, ptr %5, align 8, !tbaa !42
  %161 = getelementptr inbounds nuw %struct.my_coef_controller, ptr %160, i32 0, i32 0
  %162 = getelementptr inbounds nuw %struct.jpeg_d_coef_controller, ptr %161, i32 0, i32 9
  store ptr null, ptr %162, align 8, !tbaa !66
  call void @llvm.lifetime.end.p0(i64 4, ptr %10) #4
  call void @llvm.lifetime.end.p0(i64 8, ptr %9) #4
  br label %163

163:                                              ; preds = %153, %116
  %164 = load ptr, ptr %3, align 8, !tbaa !3
  %165 = getelementptr inbounds nuw %struct.jpeg_decompress_struct, ptr %164, i32 0, i32 1
  %166 = load ptr, ptr %165, align 8, !tbaa !39
  %167 = getelementptr inbounds nuw %struct.jpeg_memory_mgr, ptr %166, i32 0, i32 0
  %168 = load ptr, ptr %167, align 8, !tbaa !40
  %169 = load ptr, ptr %3, align 8, !tbaa !3
  %170 = call ptr %168(ptr noundef %169, i32 noundef 1, i64 noundef 128)
  %171 = load ptr, ptr %5, align 8, !tbaa !42
  %172 = getelementptr inbounds nuw %struct.my_coef_controller, ptr %171, i32 0, i32 5
  store ptr %170, ptr %172, align 8, !tbaa !70
  call void @llvm.lifetime.end.p0(i64 8, ptr %5) #4
  ret void
}