; Function Attrs: nounwind uwtable
define void @jinit_d_coef_controller(ptr noundef %0, i32 noundef %1) local_unnamed_addr #0 {
  %3 = getelementptr inbounds nuw i8, ptr %0, i64 296
  %4 = load i32, ptr %3, align 8, !tbaa !3
  %.not = icmp eq i32 %4, 8
  br i1 %.not, label %11, label %5

5:                                                ; preds = %2
  %6 = load ptr, ptr %0, align 8, !tbaa !30
  %7 = getelementptr inbounds nuw i8, ptr %6, i64 40
  store i32 15, ptr %7, align 8, !tbaa !31
  %8 = getelementptr inbounds nuw i8, ptr %6, i64 44
  store i32 %4, ptr %8, align 4, !tbaa !34
  %9 = load ptr, ptr %0, align 8, !tbaa !30
  %10 = load ptr, ptr %9, align 8, !tbaa !35
  tail call void %10(ptr noundef nonnull %0) #6
  br label %11

11:                                               ; preds = %5, %2
  %12 = getelementptr inbounds nuw i8, ptr %0, i64 8
  %13 = load ptr, ptr %12, align 8, !tbaa !36
  %14 = load ptr, ptr %13, align 8, !tbaa !37
  %15 = tail call ptr %14(ptr noundef nonnull %0, i32 noundef 1, i64 noundef 264) #6
  %16 = getelementptr inbounds nuw i8, ptr %15, i64 8
  tail call void @llvm.memset.p0.i64(ptr noundef nonnull align 8 dereferenceable(264) %16, i8 0, i64 248, i1 false)
  %17 = getelementptr inbounds nuw i8, ptr %0, i64 560
  store ptr %15, ptr %17, align 8, !tbaa !39
  store ptr @start_input_pass, ptr %15, align 8, !tbaa !40
  %18 = getelementptr inbounds nuw i8, ptr %15, i64 16
  store ptr @start_output_pass, ptr %18, align 8, !tbaa !45
  %19 = getelementptr inbounds nuw i8, ptr %15, i64 256
  store ptr null, ptr %19, align 8, !tbaa !46
  %.not52 = icmp eq i32 %1, 0
  br i1 %.not52, label %60, label %20

20:                                               ; preds = %11
  %21 = getelementptr inbounds nuw i8, ptr %0, i64 56
  %22 = load i32, ptr %21, align 8, !tbaa !47
  %23 = icmp sgt i32 %22, 0
  br i1 %23, label %.lr.ph, label %._crit_edge

.lr.ph:                                           ; preds = %20
  %24 = getelementptr inbounds nuw i8, ptr %0, i64 304
  %25 = load ptr, ptr %24, align 8, !tbaa !48
  %26 = getelementptr inbounds nuw i8, ptr %0, i64 312
  %27 = getelementptr inbounds nuw i8, ptr %15, i64 176
  br label %28

28:                                               ; preds = %.lr.ph, %28
  %indvars.iv = phi i64 [ 0, %.lr.ph ], [ %indvars.iv.next, %28 ]
  %.05054 = phi ptr [ %25, %.lr.ph ], [ %53, %28 ]
  %29 = getelementptr inbounds nuw i8, ptr %.05054, i64 12
  %30 = load i32, ptr %29, align 4, !tbaa !49
  %31 = load i32, ptr %26, align 8, !tbaa !51
  %.not53 = icmp eq i32 %31, 0
  %32 = mul nsw i32 %30, 5
  %spec.select = select i1 %.not53, i32 %30, i32 %32
  %33 = load ptr, ptr %12, align 8, !tbaa !36
  %34 = getelementptr inbounds nuw i8, ptr %33, i64 40
  %35 = load ptr, ptr %34, align 8, !tbaa !52
  %36 = getelementptr inbounds nuw i8, ptr %.05054, i64 28
  %37 = load i32, ptr %36, align 4, !tbaa !53
  %38 = zext i32 %37 to i64
  %39 = getelementptr inbounds nuw i8, ptr %.05054, i64 8
  %40 = load i32, ptr %39, align 8, !tbaa !54
  %41 = sext i32 %40 to i64
  %42 = tail call i64 @jround_up(i64 noundef %38, i64 noundef %41) #6
  %43 = trunc i64 %42 to i32
  %44 = getelementptr inbounds nuw i8, ptr %.05054, i64 32
  %45 = load i32, ptr %44, align 8, !tbaa !55
  %46 = zext i32 %45 to i64
  %47 = load i32, ptr %29, align 4, !tbaa !49
  %48 = sext i32 %47 to i64
  %49 = tail call i64 @jround_up(i64 noundef %46, i64 noundef %48) #6
  %50 = trunc i64 %49 to i32
  %51 = tail call ptr %35(ptr noundef nonnull %0, i32 noundef 1, i32 noundef 1, i32 noundef %43, i32 noundef %50, i32 noundef %spec.select) #6
  %52 = getelementptr inbounds nuw [10 x ptr], ptr %27, i64 0, i64 %indvars.iv
  store ptr %51, ptr %52, align 8, !tbaa !56
  %indvars.iv.next = add nuw nsw i64 %indvars.iv, 1
  %53 = getelementptr inbounds nuw i8, ptr %.05054, i64 96
  %54 = load i32, ptr %21, align 8, !tbaa !47
  %55 = sext i32 %54 to i64
  %56 = icmp slt i64 %indvars.iv.next, %55
  br i1 %56, label %28, label %._crit_edge, !llvm.loop !58

._crit_edge:                                      ; preds = %28, %20
  %57 = getelementptr inbounds nuw i8, ptr %15, i64 8
  store ptr @consume_data, ptr %57, align 8, !tbaa !60
  %58 = getelementptr inbounds nuw i8, ptr %15, i64 24
  store ptr @decompress_data, ptr %58, align 8, !tbaa !61
  %59 = getelementptr inbounds nuw i8, ptr %15, i64 176
  br label %72

60:                                               ; preds = %11
  %61 = load ptr, ptr %12, align 8, !tbaa !36
  %62 = getelementptr inbounds nuw i8, ptr %61, i64 8
  %63 = load ptr, ptr %62, align 8, !tbaa !62
  %64 = tail call ptr %63(ptr noundef nonnull %0, i32 noundef 1, i64 noundef 1280) #6
  %65 = getelementptr inbounds nuw i8, ptr %15, i64 88
  br label %66

66:                                               ; preds = %60, %66
  %indvars.iv58 = phi i64 [ 0, %60 ], [ %indvars.iv.next59, %66 ]
  %67 = getelementptr inbounds nuw [64 x i16], ptr %64, i64 %indvars.iv58
  %68 = getelementptr inbounds nuw [10 x ptr], ptr %65, i64 0, i64 %indvars.iv58
  store ptr %67, ptr %68, align 8, !tbaa !63
  %indvars.iv.next59 = add nuw nsw i64 %indvars.iv58, 1
  %exitcond.not = icmp eq i64 %indvars.iv.next59, 10
  br i1 %exitcond.not, label %69, label %66, !llvm.loop !64

69:                                               ; preds = %66
  %70 = getelementptr inbounds nuw i8, ptr %15, i64 8
  store ptr @dummy_consume_data, ptr %70, align 8, !tbaa !60
  %71 = getelementptr inbounds nuw i8, ptr %15, i64 24
  store ptr @decompress_onepass, ptr %71, align 8, !tbaa !61
  br label %72

72:                                               ; preds = %69, %._crit_edge
  %.sink = phi ptr [ null, %69 ], [ %59, %._crit_edge ]
  %73 = getelementptr inbounds nuw i8, ptr %15, i64 64
  store ptr %.sink, ptr %73, align 8, !tbaa !65
  %74 = load ptr, ptr %12, align 8, !tbaa !36
  %75 = load ptr, ptr %74, align 8, !tbaa !37
  %76 = tail call ptr %75(ptr noundef nonnull %0, i32 noundef 1, i64 noundef 128) #6
  %77 = getelementptr inbounds nuw i8, ptr %15, i64 168
  store ptr %76, ptr %77, align 8, !tbaa !66
  ret void
}